target datalayout = "e-m:e-p270:32:32-p271:32:32-p272:64:64-i64:64-i128:128-f80:128-n8:16:32:64-S128"
target triple = "x86_64-pc-linux-gnu"

@hf_r3_commandlength = internal global i32 0, align 4
@hf_r3_command = internal global i32 0, align 4
@hf_r3_filter_type = internal global i32 0, align 4
@hf_r3_filter_list = internal global i32 0, align 4
@ett_r3filters = internal global i32 0, align 4
@.str.2182 = private unnamed_addr constant [23 x i8] c"Filters (%u specified)\00", align 1

; Function Attrs: null_pointer_is_valid sspstrong uwtable
define internal void @dissect_r3_cmd_filters(ptr noundef %0, i32 noundef %1, i32 noundef %2, ptr noundef %3, ptr noundef %4) #0 {
  %6 = alloca ptr, align 8
  %7 = alloca i32, align 4
  %8 = alloca i32, align 4
  %9 = alloca ptr, align 8
  %10 = alloca ptr, align 8
  %11 = alloca ptr, align 8
  %12 = alloca i8, align 1
  %13 = alloca ptr, align 8
  %14 = alloca i32, align 4
  %15 = alloca i32, align 4
  store ptr %0, ptr %6, align 8
  store i32 %1, ptr %7, align 4
  store i32 %2, ptr %8, align 4
  store ptr %3, ptr %9, align 8
  store ptr %4, ptr %10, align 8
  call void @llvm.lifetime.start.p0(i64 8, ptr %11) #5
  call void @llvm.lifetime.start.p0(i64 1, ptr %12) #5
  call void @llvm.lifetime.start.p0(i64 8, ptr %13) #5
  call void @llvm.lifetime.start.p0(i64 4, ptr %14) #5
  %16 = load ptr, ptr %10, align 8
  %17 = icmp ne ptr %16, null
  br i1 %17, label %19, label %18

18:                                               ; preds = %5
  store i32 1, ptr %15, align 4
  br label %71

19:                                               ; preds = %5
  %20 = load ptr, ptr %6, align 8
  %21 = load i32, ptr %7, align 4
  %22 = add i32 %21, 0
  %23 = call zeroext i8 @tvb_get_uint8(ptr noundef %20, i32 noundef %22)
  store i8 %23, ptr %12, align 1
  %24 = load ptr, ptr %6, align 8
  %25 = load i32, ptr %7, align 4
  %26 = add i32 %25, 2
  %27 = load i8, ptr %12, align 1
  %28 = zext i8 %27 to i32
  %29 = sub i32 %28, 2
  %30 = call ptr @tvb_new_subset_length(ptr noundef %24, i32 noundef %26, i32 noundef %29)
  store ptr %30, ptr %13, align 8
  %31 = load ptr, ptr %10, align 8
  %32 = load i32, ptr @hf_r3_commandlength, align 4
  %33 = load ptr, ptr %6, align 8
  %34 = load i32, ptr %7, align 4
  %35 = add i32 %34, 0
  %36 = call ptr @proto_tree_add_item(ptr noundef %31, i32 noundef %32, ptr noundef %33, i32 noundef %35, i32 noundef 1, i32 noundef -2147483648)
  %37 = load ptr, ptr %10, align 8
  %38 = load i32, ptr @hf_r3_command, align 4
  %39 = load ptr, ptr %6, align 8
  %40 = load i32, ptr %7, align 4
  %41 = add i32 %40, 1
  %42 = call ptr @proto_tree_add_item(ptr noundef %37, i32 noundef %38, ptr noundef %39, i32 noundef %41, i32 noundef 1, i32 noundef -2147483648)
  %43 = load ptr, ptr %10, align 8
  %44 = load i32, ptr @hf_r3_filter_type, align 4
  %45 = load ptr, ptr %13, align 8
  %46 = call ptr @proto_tree_add_item(ptr noundef %43, i32 noundef %44, ptr noundef %45, i32 noundef 1, i32 noundef 1, i32 noundef -2147483648)
  %47 = load ptr, ptr %10, align 8
  %48 = load ptr, ptr %13, align 8
  %49 = load i32, ptr @ett_r3filters, align 4
  %50 = load ptr, ptr %13, align 8
  %51 = call zeroext i8 @tvb_get_uint8(ptr noundef %50, i32 noundef 0)
  %52 = zext i8 %51 to i32
  %53 = call ptr (ptr, ptr, i32, i32, i32, ptr, ptr, ...) @proto_tree_add_subtree_format(ptr noundef %47, ptr noundef %48, i32 noundef 2, i32 noundef -1, i32 noundef %49, ptr noundef null, ptr noundef @.str.2182, i32 noundef %52)
  store ptr %53, ptr %11, align 8
  store i32 0, ptr %14, align 4
  br label %54

54:                                               ; preds = %67, %19
  %55 = load i32, ptr %14, align 4
  %56 = load ptr, ptr %13, align 8
  %57 = call zeroext i8 @tvb_get_uint8(ptr noundef %56, i32 noundef 0)
  %58 = zext i8 %57 to i32
  %59 = icmp ult i32 %55, %58
  br i1 %59, label %60, label %70

60:                                               ; preds = %54
  %61 = load ptr, ptr %11, align 8
  %62 = load i32, ptr @hf_r3_filter_list, align 4
  %63 = load ptr, ptr %13, align 8
  %64 = load i32, ptr %14, align 4
  %65 = add i32 %64, 2
  %66 = call ptr @proto_tree_add_item(ptr noundef %61, i32 noundef %62, ptr noundef %63, i32 noundef %65, i32 noundef 1, i32 noundef -2147483648)
  br label %67

67:                                               ; preds = %60
  %68 = load i32, ptr %14, align 4
  %69 = add i32 %68, 1
  store i32 %69, ptr %14, align 4
  br label %54, !llvm.loop !15

70:                                               ; preds = %54
  store i32 0, ptr %15, align 4
  br label %71

71:                                               ; preds = %70, %18
  call void @llvm.lifetime.end.p0(i64 4, ptr %14) #5
  call void @llvm.lifetime.end.p0(i64 8, ptr %13) #5
  call void @llvm.lifetime.end.p0(i64 1, ptr %12) #5
  call void @llvm.lifetime.end.p0(i64 8, ptr %11) #5
  %72 = load i32, ptr %15, align 4
  switch i32 %72, label %74 [
    i32 0, label %73
    i32 1, label %73
  ]

73:                                               ; preds = %71, %71
  ret void

74:                                               ; preds = %71
  unreachable
}