; Function Attrs: null_pointer_is_valid sspstrong uwtable
define internal void @dissect_r3_cmd_filters(ptr noundef %0, i32 noundef %1, i32 %2, ptr readnone captures(none) %3, ptr noundef %4) #0 {
  %.not = icmp eq ptr %4, null
  br i1 %.not, label %.loopexit, label %6

6:                                                ; preds = %5
  %7 = tail call zeroext i8 @tvb_get_uint8(ptr noundef %0, i32 noundef %1)
  %8 = add i32 %1, 2
  %9 = zext i8 %7 to i32
  %10 = add nsw i32 %9, -2
  %11 = tail call ptr @tvb_new_subset_length(ptr noundef %0, i32 noundef %8, i32 noundef %10)
  %12 = load i32, ptr @hf_r3_commandlength, align 4
  %13 = tail call ptr @proto_tree_add_item(ptr noundef nonnull %4, i32 noundef %12, ptr noundef %0, i32 noundef %1, i32 noundef 1, i32 noundef -2147483648)
  %14 = load i32, ptr @hf_r3_command, align 4
  %15 = add i32 %1, 1
  %16 = tail call ptr @proto_tree_add_item(ptr noundef nonnull %4, i32 noundef %14, ptr noundef %0, i32 noundef %15, i32 noundef 1, i32 noundef -2147483648)
  %17 = load i32, ptr @hf_r3_filter_type, align 4
  %18 = tail call ptr @proto_tree_add_item(ptr noundef nonnull %4, i32 noundef %17, ptr noundef %11, i32 noundef 1, i32 noundef 1, i32 noundef -2147483648)
  %19 = load i32, ptr @ett_r3filters, align 4
  %20 = tail call zeroext i8 @tvb_get_uint8(ptr noundef %11, i32 noundef 0)
  %21 = zext i8 %20 to i32
  %22 = tail call ptr (ptr, ptr, i32, i32, i32, ptr, ptr, ...) @proto_tree_add_subtree_format(ptr noundef nonnull %4, ptr noundef %11, i32 noundef 2, i32 noundef -1, i32 noundef %19, ptr noundef null, ptr noundef nonnull @.str.2182, i32 noundef %21)
  %23 = tail call zeroext i8 @tvb_get_uint8(ptr noundef %11, i32 noundef 0)
  %.not24 = icmp eq i8 %23, 0
  br i1 %.not24, label %.loopexit, label %.lr.ph

.lr.ph:                                           ; preds = %6, %.lr.ph
  %.023 = phi i32 [ %27, %.lr.ph ], [ 0, %6 ]
  %24 = load i32, ptr @hf_r3_filter_list, align 4
  %25 = add nuw nsw i32 %.023, 2
  %26 = tail call ptr @proto_tree_add_item(ptr noundef %22, i32 noundef %24, ptr noundef %11, i32 noundef %25, i32 noundef 1, i32 noundef -2147483648)
  %27 = add nuw nsw i32 %.023, 1
  %28 = tail call zeroext i8 @tvb_get_uint8(ptr noundef %11, i32 noundef 0)
  %29 = zext i8 %28 to i32
  %30 = icmp samesign ult i32 %27, %29
  br i1 %30, label %.lr.ph, label %.loopexit, !llvm.loop !15

.loopexit:                                        ; preds = %.lr.ph, %6, %5
  ret void
}